; Function Attrs: mustprogress nofree norecurse nosync nounwind willreturn memory(argmem: write) uwtable
define internal noundef zeroext i1 @_ZNSt17_Function_handlerIFvPN5folly17ShutdownSocketSetEEZNS0_9SingletonIS1_NS0_12_GLOBAL__N_110PrivateTagENS0_6detail10DefaultTagEE15getTeardownFuncESt8functionIS3_EEUlS2_E_E10_M_managerERSt9_Any_dataRKSE_St18_Manager_operation(ptr noundef nonnull writeonly align 8 captures(none) dereferenceable(16) %0, ptr noundef nonnull align 8 dereferenceable(16) %1, i32 noundef %2) #3 align 2 personality ptr @__gxx_personality_v0 {
  switch i32 %2, label %_ZNSt14_Function_base13_Base_managerIZN5folly9SingletonINS1_17ShutdownSocketSetENS1_12_GLOBAL__N_110PrivateTagENS1_6detail10DefaultTagEE15getTeardownFuncESt8functionIFvPS3_EEEUlSA_E_E10_M_managerERSt9_Any_dataRKSF_St18_Manager_operation.exit [
    i32 0, label %_ZNSt14_Function_base13_Base_managerIZN5folly9SingletonINS1_17ShutdownSocketSetENS1_12_GLOBAL__N_110PrivateTagENS1_6detail10DefaultTagEE15getTeardownFuncESt8functionIFvPS3_EEEUlSA_E_E10_M_managerERSt9_Any_dataRKSF_St18_Manager_operation.exit.sink.split
    i32 1, label %4
  ]

4:                                                ; preds = %3
  br label %_ZNSt14_Function_base13_Base_managerIZN5folly9SingletonINS1_17ShutdownSocketSetENS1_12_GLOBAL__N_110PrivateTagENS1_6detail10DefaultTagEE15getTeardownFuncESt8functionIFvPS3_EEEUlSA_E_E10_M_managerERSt9_Any_dataRKSF_St18_Manager_operation.exit.sink.split

_ZNSt14_Function_base13_Base_managerIZN5folly9SingletonINS1_17ShutdownSocketSetENS1_12_GLOBAL__N_110PrivateTagENS1_6detail10DefaultTagEE15getTeardownFuncESt8functionIFvPS3_EEEUlSA_E_E10_M_managerERSt9_Any_dataRKSF_St18_Manager_operation.exit.sink.split: ; preds = %3, %4
  %.sink = phi ptr [ %1, %4 ], [ @_ZTIZN5folly9SingletonINS_17ShutdownSocketSetENS_12_GLOBAL__N_110PrivateTagENS_6detail10DefaultTagEE15getTeardownFuncESt8functionIFvPS1_EEEUlS8_E_, %3 ]
  store ptr %.sink, ptr %0, align 8, !tbaa !7
  br label %_ZNSt14_Function_base13_Base_managerIZN5folly9SingletonINS1_17ShutdownSocketSetENS1_12_GLOBAL__N_110PrivateTagENS1_6detail10DefaultTagEE15getTeardownFuncESt8functionIFvPS3_EEEUlSA_E_E10_M_managerERSt9_Any_dataRKSF_St18_Manager_operation.exit

_ZNSt14_Function_base13_Base_managerIZN5folly9SingletonINS1_17ShutdownSocketSetENS1_12_GLOBAL__N_110PrivateTagENS1_6detail10DefaultTagEE15getTeardownFuncESt8functionIFvPS3_EEEUlSA_E_E10_M_managerERSt9_Any_dataRKSF_St18_Manager_operation.exit: ; preds = %_ZNSt14_Function_base13_Base_managerIZN5folly9SingletonINS1_17ShutdownSocketSetENS1_12_GLOBAL__N_110PrivateTagENS1_6detail10DefaultTagEE15getTeardownFuncESt8functionIFvPS3_EEEUlSA_E_E10_M_managerERSt9_Any_dataRKSF_St18_Manager_operation.exit.sink.split, %3
  ret i1 false
}